; Function Attrs: mustprogress uwtable
define hidden noundef i32 @_ZNK2dd11pdd_manager13first_leadingEj(ptr noundef nonnull align 8 dereferenceable(952) %0, i32 noundef %1) local_unnamed_addr #3 align 2 {
  %.pre = load ptr, ptr %0, align 8, !tbaa !91
  br label %3

3:                                                ; preds = %23, %2
  %4 = phi ptr [ %.pre, %2 ], [ %24, %23 ]
  %.0 = phi i32 [ %1, %2 ], [ %26, %23 ]
  %5 = zext i32 %.0 to i64
  %6 = getelementptr inbounds nuw %"struct.dd::pdd_manager::node", ptr %4, i64 %5
  %7 = getelementptr inbounds nuw i8, ptr %6, i64 8
  %8 = load i32, ptr %7, align 4, !tbaa !92
  %9 = icmp eq i32 %8, 0
  br i1 %9, label %10, label %_ZNK2dd11pdd_manager6is_valEj.exit.thread5

10:                                               ; preds = %3
  %11 = getelementptr inbounds nuw i8, ptr %6, i64 4
  %12 = load i32, ptr %11, align 4, !tbaa !94
  %.not.i.i = icmp eq i32 %12, 0
  br i1 %.not.i.i, label %_ZNK2dd11pdd_manager6is_valEj.exit, label %.critedge

_ZNK2dd11pdd_manager6is_valEj.exit:               ; preds = %10
  %13 = getelementptr inbounds nuw i8, ptr %6, i64 12
  %14 = load i32, ptr %13, align 4, !tbaa !98
  %15 = icmp eq i32 %14, 0
  br i1 %15, label %.critedge, label %_ZNK2dd11pdd_manager6is_valEj.exit.thread5

_ZNK2dd11pdd_manager6is_valEj.exit.thread5:       ; preds = %3, %_ZNK2dd11pdd_manager6is_valEj.exit
  %16 = tail call noundef i32 @_ZNK2dd11pdd_manager6degreeEj(ptr noundef nonnull align 8 dereferenceable(952) %0, i32 noundef %8)
  %17 = add i32 %16, 1
  %18 = load ptr, ptr %0, align 8, !tbaa !91
  %19 = getelementptr inbounds nuw %"struct.dd::pdd_manager::node", ptr %18, i64 %5, i32 1
  %20 = load i32, ptr %19, align 4, !tbaa !94
  %21 = tail call noundef i32 @_ZNK2dd11pdd_manager6degreeEj(ptr noundef nonnull align 8 dereferenceable(952) %0, i32 noundef %20)
  %22 = icmp ult i32 %17, %21
  br i1 %22, label %23, label %.critedge

23:                                               ; preds = %_ZNK2dd11pdd_manager6is_valEj.exit.thread5
  %24 = load ptr, ptr %0, align 8, !tbaa !91
  %25 = getelementptr inbounds nuw %"struct.dd::pdd_manager::node", ptr %24, i64 %5, i32 1
  %26 = load i32, ptr %25, align 4, !tbaa !94
  br label %3, !llvm.loop !211

.critedge:                                        ; preds = %10, %_ZNK2dd11pdd_manager6is_valEj.exit, %_ZNK2dd11pdd_manager6is_valEj.exit.thread5
  ret i32 %.0
}